target datalayout = "e-m:e-p270:32:32-p271:32:32-p272:64:64-i64:64-i128:128-f80:128-n8:16:32:64-S128"
target triple = "x86_64-pc-linux-gnu"

; Function Attrs: nounwind uwtable
define internal ptr @Scl_LibertyFindMatch(ptr noundef %0, ptr noundef %1) #0 {
  %3 = alloca ptr, align 8
  %4 = alloca ptr, align 8
  %5 = alloca i32, align 4
  store ptr %0, ptr %3, align 8
  store ptr %1, ptr %4, align 8
  store i32 0, ptr %5, align 4
  %6 = load ptr, ptr %3, align 8
  %7 = load i8, ptr %6, align 1
  %8 = sext i8 %7 to i32
  %9 = icmp eq i32 %8, 40
  br i1 %9, label %10, label %45

10:                                               ; preds = %2
  %11 = load i32, ptr %5, align 4
  %12 = add nsw i32 %11, 1
  store i32 %12, ptr %5, align 4
  %13 = load ptr, ptr %3, align 8
  %14 = getelementptr inbounds i8, ptr %13, i32 1
  store ptr %14, ptr %3, align 8
  br label %15

15:                                               ; preds = %41, %10
  %16 = load ptr, ptr %3, align 8
  %17 = load ptr, ptr %4, align 8
  %18 = icmp ult ptr %16, %17
  br i1 %18, label %19, label %44

19:                                               ; preds = %15
  %20 = load ptr, ptr %3, align 8
  %21 = load i8, ptr %20, align 1
  %22 = sext i8 %21 to i32
  %23 = icmp eq i32 %22, 40
  br i1 %23, label %24, label %27

24:                                               ; preds = %19
  %25 = load i32, ptr %5, align 4
  %26 = add nsw i32 %25, 1
  store i32 %26, ptr %5, align 4
  br label %41

27:                                               ; preds = %19
  %28 = load ptr, ptr %3, align 8
  %29 = load i8, ptr %28, align 1
  %30 = sext i8 %29 to i32
  %31 = icmp eq i32 %30, 41
  br i1 %31, label %32, label %39

32:                                               ; preds = %27
  %33 = load i32, ptr %5, align 4
  %34 = add nsw i32 %33, -1
  store i32 %34, ptr %5, align 4
  %35 = load i32, ptr %5, align 4
  %36 = icmp eq i32 %35, 0
  br i1 %36, label %37, label %38

37:                                               ; preds = %32
  br label %44

38:                                               ; preds = %32
  br label %39

39:                                               ; preds = %38, %27
  br label %40

40:                                               ; preds = %39
  br label %41

41:                                               ; preds = %40, %24
  %42 = load ptr, ptr %3, align 8
  %43 = getelementptr inbounds i8, ptr %42, i32 1
  store ptr %43, ptr %3, align 8
  br label %15, !llvm.loop !20

44:                                               ; preds = %37, %15
  br label %80

45:                                               ; preds = %2
  %46 = load i32, ptr %5, align 4
  %47 = add nsw i32 %46, 1
  store i32 %47, ptr %5, align 4
  %48 = load ptr, ptr %3, align 8
  %49 = getelementptr inbounds i8, ptr %48, i32 1
  store ptr %49, ptr %3, align 8
  br label %50

50:                                               ; preds = %76, %45
  %51 = load ptr, ptr %3, align 8
  %52 = load ptr, ptr %4, align 8
  %53 = icmp ult ptr %51, %52
  br i1 %53, label %54, label %79

54:                                               ; preds = %50
  %55 = load ptr, ptr %3, align 8
  %56 = load i8, ptr %55, align 1
  %57 = sext i8 %56 to i32
  %58 = icmp eq i32 %57, 123
  br i1 %58, label %59, label %62

59:                                               ; preds = %54
  %60 = load i32, ptr %5, align 4
  %61 = add nsw i32 %60, 1
  store i32 %61, ptr %5, align 4
  br label %76

62:                                               ; preds = %54
  %63 = load ptr, ptr %3, align 8
  %64 = load i8, ptr %63, align 1
  %65 = sext i8 %64 to i32
  %66 = icmp eq i32 %65, 125
  br i1 %66, label %67, label %74

67:                                               ; preds = %62
  %68 = load i32, ptr %5, align 4
  %69 = add nsw i32 %68, -1
  store i32 %69, ptr %5, align 4
  %70 = load i32, ptr %5, align 4
  %71 = icmp eq i32 %70, 0
  br i1 %71, label %72, label %73

72:                                               ; preds = %67
  br label %79

73:                                               ; preds = %67
  br label %74

74:                                               ; preds = %73, %62
  br label %75

75:                                               ; preds = %74
  br label %76

76:                                               ; preds = %75, %59
  %77 = load ptr, ptr %3, align 8
  %78 = getelementptr inbounds i8, ptr %77, i32 1
  store ptr %78, ptr %3, align 8
  br label %50, !llvm.loop !21

79:                                               ; preds = %72, %50
  br label %80

80:                                               ; preds = %79, %44
  %81 = load ptr, ptr %3, align 8
  ret ptr %81
}