; Function Attrs: nofree norecurse nosync nounwind memory(argmem: read) uwtable
define internal fastcc ptr @Scl_LibertyFindMatch(ptr noundef readonly %0, ptr noundef readnone %1) unnamed_addr #2 {
  %3 = ptrtoint ptr %0 to i64
  %4 = ptrtoint ptr %1 to i64
  %5 = load i8, ptr %0, align 1
  %6 = icmp eq i8 %5, 40
  %.02136 = getelementptr inbounds nuw i8, ptr %0, i64 1
  %7 = icmp ult ptr %.02136, %1
  br i1 %6, label %.preheader, label %.preheader29

.preheader29:                                     ; preds = %2
  br i1 %7, label %.lr.ph.preheader, label %.loopexit

.lr.ph.preheader:                                 ; preds = %.preheader29
  %8 = sub i64 %4, %3
  %scevgep = getelementptr i8, ptr %0, i64 %8
  br label %.lr.ph

.preheader:                                       ; preds = %2
  br i1 %7, label %.lr.ph39.preheader, label %.loopexit

.lr.ph39.preheader:                               ; preds = %.preheader
  %9 = sub i64 %4, %3
  %scevgep45 = getelementptr i8, ptr %0, i64 %9
  br label %.lr.ph39

.lr.ph39:                                         ; preds = %.lr.ph39.preheader, %16
  %.02138 = phi ptr [ %.021, %16 ], [ %.02136, %.lr.ph39.preheader ]
  %.037 = phi i32 [ %.1, %16 ], [ 1, %.lr.ph39.preheader ]
  %10 = load i8, ptr %.02138, align 1
  switch i8 %10, label %16 [
    i8 40, label %11
    i8 41, label %13
  ]

11:                                               ; preds = %.lr.ph39
  %12 = add nsw i32 %.037, 1
  br label %16

13:                                               ; preds = %.lr.ph39
  %14 = add nsw i32 %.037, -1
  %15 = icmp eq i32 %14, 0
  br i1 %15, label %.loopexit, label %16

16:                                               ; preds = %.lr.ph39, %13, %11
  %.1 = phi i32 [ %12, %11 ], [ %14, %13 ], [ %.037, %.lr.ph39 ]
  %.021 = getelementptr inbounds nuw i8, ptr %.02138, i64 1
  %exitcond46.not = icmp eq ptr %.021, %1
  br i1 %exitcond46.not, label %.loopexit, label %.lr.ph39, !llvm.loop !19

.lr.ph:                                           ; preds = %.lr.ph.preheader, %23
  %.22333 = phi ptr [ %.223, %23 ], [ %.02136, %.lr.ph.preheader ]
  %.232 = phi i32 [ %.3, %23 ], [ 1, %.lr.ph.preheader ]
  %17 = load i8, ptr %.22333, align 1
  switch i8 %17, label %23 [
    i8 123, label %18
    i8 125, label %20
  ]

18:                                               ; preds = %.lr.ph
  %19 = add nsw i32 %.232, 1
  br label %23

20:                                               ; preds = %.lr.ph
  %21 = add nsw i32 %.232, -1
  %22 = icmp eq i32 %21, 0
  br i1 %22, label %.loopexit, label %23

23:                                               ; preds = %.lr.ph, %20, %18
  %.3 = phi i32 [ %19, %18 ], [ %21, %20 ], [ %.232, %.lr.ph ]
  %.223 = getelementptr inbounds nuw i8, ptr %.22333, i64 1
  %exitcond.not = icmp eq ptr %.223, %1
  br i1 %exitcond.not, label %.loopexit, label %.lr.ph, !llvm.loop !20

.loopexit:                                        ; preds = %20, %23, %13, %16, %.preheader29, %.preheader
  %.122 = phi ptr [ %.02136, %.preheader ], [ %.02136, %.preheader29 ], [ %.02138, %13 ], [ %scevgep45, %16 ], [ %.22333, %20 ], [ %scevgep, %23 ]
  ret ptr %.122
}